(dp1
S'failed'
p2
(lp3
sS'source_names'
p4
(lp5
S'swtrack/test/test_schema1.py:Schema1Test'
p6
aS'swtrack/test/test_schema1.py:Schema1Test'
p7
aS'.'
asS'ids'
p8
(dp9
I1
(S'/Users/jonathangerber/src/python/swinstall_proposal/swtrack/test/test_schema1.py'
S'test_schema1'
p10
S'Schema1Test.test_current'
tp11
sI2
(S'/Users/jonathangerber/src/python/swinstall_proposal/swtrack/test/test_schema1.py'
g10
S'Schema1Test.test_current_false'
tp12
sI3
(S'/Users/jonathangerber/src/python/swinstall_proposal/swtrack/test/test_schema1.py'
g10
S'Schema1Test.test_current_version'
tp13
sI4
(S'/Users/jonathangerber/src/python/swinstall_proposal/swtrack/test/test_schema1.py'
g10
S'Schema1Test.test_file_on_after_current'
tp14
sI5
(S'/Users/jonathangerber/src/python/swinstall_proposal/swtrack/test/test_schema1.py'
g10
S'Schema1Test.test_file_on_before_current'
tp15
sI6
(S'/Users/jonathangerber/src/python/swinstall_proposal/swtrack/test/test_schema1.py'
g10
S'Schema1Test.test_insert_element'
tp16
sI7
(S'/Users/jonathangerber/src/python/swinstall_proposal/swtrack/test/test_schema1.py'
g10
S'Schema1Test.test_insert_element_with_revision'
tp17
sI8
(S'/Users/jonathangerber/src/python/swinstall_proposal/swtrack/test/test_schema1.py'
g10
S'Schema1Test.test_parse'
tp18
sI9
(S'/Users/jonathangerber/src/python/swinstall_proposal/swtrack/test/test_schema1.py'
g10
S'Schema1Test.test_rollback_element'
tp19
sI10
(S'/Users/jonathangerber/src/python/swinstall_proposal/swtrack/test/test_schema1.py'
g10
S'Schema1Test.test_too_many_rollbacks'
tp20
sI11
(S'/Users/jonathangerber/src/python/swinstall_proposal/swtrack/test/test_schema1.py'
g10
S'Schema1Test.test_version'
tp21
sI12
(S'/Users/jonathangerber/src/python/swinstall_proposal/swtrack/test/test_schema1.py'
g10
S'Schema1Test.test_version_nomatch'
tp22
sI13
(S'/Users/jonathangerber/src/python/swinstall_proposal/swtrack/test/test_schema2.py'
S'test_schema2'
p23
S'Schema2Test.test_current'
tp24
sI14
(S'/Users/jonathangerber/src/python/swinstall_proposal/swtrack/test/test_schema2.py'
g23
S'Schema2Test.test_current_false'
tp25
sI15
(S'/Users/jonathangerber/src/python/swinstall_proposal/swtrack/test/test_schema2.py'
g23
S'Schema2Test.test_current_version'
tp26
sI16
(S'/Users/jonathangerber/src/python/swinstall_proposal/swtrack/test/test_schema2.py'
g23
S'Schema2Test.test_file_on'
tp27
sI17
(S'/Users/jonathangerber/src/python/swinstall_proposal/swtrack/test/test_schema2.py'
g23
S'Schema2Test.test_insert_element'
tp28
sI18
(S'/Users/jonathangerber/src/python/swinstall_proposal/swtrack/test/test_schema2.py'
g23
S'Schema2Test.test_insert_element_with_revision'
tp29
sI19
(S'/Users/jonathangerber/src/python/swinstall_proposal/swtrack/test/test_schema2.py'
g23
S'Schema2Test.test_next_version'
tp30
sI20
(S'/Users/jonathangerber/src/python/swinstall_proposal/swtrack/test/test_schema2.py'
g23
S'Schema2Test.test_next_version_after_rollback'
tp31
sI21
(S'/Users/jonathangerber/src/python/swinstall_proposal/swtrack/test/test_schema2.py'
g23
S'Schema2Test.test_parse'
tp32
sI22
(S'/Users/jonathangerber/src/python/swinstall_proposal/swtrack/test/test_schema2.py'
g23
S'Schema2Test.test_rollback_element'
tp33
sI23
(S'/Users/jonathangerber/src/python/swinstall_proposal/swtrack/test/test_schema2.py'
g23
S'Schema2Test.test_too_many_rollbacks'
tp34
sI24
(S'/Users/jonathangerber/src/python/swinstall_proposal/swtrack/test/test_schema2.py'
g23
S'Schema2Test.test_version'
tp35
sI25
(S'/Users/jonathangerber/src/python/swinstall_proposal/swtrack/test/test_schema2.py'
g23
S'Schema2Test.test_version_nomatch'
tp36
sI26
(S'/Users/jonathangerber/src/python/swinstall_proposal/swtrack/test/test_schemabase.py'
S'test_schemabase'
p37
S'SchemaBaseTest.test_root_dirname'
tp38
sI27
(S'/Users/jonathangerber/src/python/swinstall_proposal/swtrack/test/test_schemabase.py'
g37
S'SchemaBaseTest.test_root_prop'
tp39
sI28
(S'/Users/jonathangerber/src/python/swinstall_proposal/swtrack/test/test_schemabase.py'
g37
S'SchemaBaseTest.test_swinstall_stack_prop'
tp40
sI29
(S'/Users/jonathangerber/src/python/swinstall_proposal/swtrack/test/test_schemabase.py'
g37
S'SchemaBaseTest.test_versionless_filename'
tp41
sI30
(S'/Users/jonathangerber/src/python/swinstall_proposal/swtrack/test/test_utils.py'
S'test_utils'
p42
S'UtilsTest.test_datetime_from_str'
tp43
sI31
(S'/Users/jonathangerber/src/python/swinstall_proposal/swtrack/test/test_utils.py'
g42
S'UtilsTest.test_datetime_revision_from_str_no_rev'
tp44
sI32
(S'/Users/jonathangerber/src/python/swinstall_proposal/swtrack/test/test_utils.py'
g42
S'UtilsTest.test_datetime_revision_from_str_with_rev'
tp45
sI33
(S'/Users/jonathangerber/src/python/swinstall_proposal/swtrack/test/test_utils.py'
g42
S'UtilsTest.test_datetime_to_str'
tp46
ss.