(dp1
S'failed'
p2
(lp3
sS'source_names'
p4
(lp5
S'swtrack/test/test_schema1.py:Schema1Test'
p6
aS'swtrack/test/test_schema1.py:Schema1Test'
p7
aS'.'
aS'swtrack/test/test_schema1.py:Schema1Test.test_version'
p8
asS'ids'
p9
(dp10
I1
(S'/Users/jonathangerber/src/python/swinstall_proposal/swtrack/test/test_schema1.py'
S'test_schema1'
p11
S'Schema1Test.test_current'
tp12
sI2
(S'/Users/jonathangerber/src/python/swinstall_proposal/swtrack/test/test_schema1.py'
g11
S'Schema1Test.test_current_false'
tp13
sI3
(S'/Users/jonathangerber/src/python/swinstall_proposal/swtrack/test/test_schema1.py'
g11
S'Schema1Test.test_current_version'
tp14
sI4
(S'/Users/jonathangerber/src/python/swinstall_proposal/swtrack/test/test_schema1.py'
g11
S'Schema1Test.test_file_on_after_current'
tp15
sI5
(S'/Users/jonathangerber/src/python/swinstall_proposal/swtrack/test/test_schema1.py'
g11
S'Schema1Test.test_file_on_before_current'
tp16
sI6
(S'/Users/jonathangerber/src/python/swinstall_proposal/swtrack/test/test_schema1.py'
g11
S'Schema1Test.test_insert_element'
tp17
sI7
(S'/Users/jonathangerber/src/python/swinstall_proposal/swtrack/test/test_schema1.py'
g11
S'Schema1Test.test_insert_element_with_revision'
tp18
sI8
(S'/Users/jonathangerber/src/python/swinstall_proposal/swtrack/test/test_schema1.py'
g11
S'Schema1Test.test_parse'
tp19
sI9
(S'/Users/jonathangerber/src/python/swinstall_proposal/swtrack/test/test_schema1.py'
g11
S'Schema1Test.test_rollback_element'
tp20
sI10
(S'/Users/jonathangerber/src/python/swinstall_proposal/swtrack/test/test_schema1.py'
g11
S'Schema1Test.test_too_many_rollbacks'
tp21
sI11
(S'/Users/jonathangerber/src/python/swinstall_proposal/swtrack/test/test_schema1.py'
g11
S'Schema1Test.test_version'
tp22
sI12
(S'/Users/jonathangerber/src/python/swinstall_proposal/swtrack/test/test_schema1.py'
g11
S'Schema1Test.test_version_nomatch'
tp23
sI13
(S'/Users/jonathangerber/src/python/swinstall_proposal/swtrack/test/test_schema2.py'
S'test_schema2'
p24
S'Schema2Test.test_current'
tp25
sI14
(S'/Users/jonathangerber/src/python/swinstall_proposal/swtrack/test/test_schema2.py'
g24
S'Schema2Test.test_current_false'
tp26
sI15
(S'/Users/jonathangerber/src/python/swinstall_proposal/swtrack/test/test_schema2.py'
g24
S'Schema2Test.test_current_version'
tp27
sI16
(S'/Users/jonathangerber/src/python/swinstall_proposal/swtrack/test/test_schema2.py'
g24
S'Schema2Test.test_file_on'
tp28
sI17
(S'/Users/jonathangerber/src/python/swinstall_proposal/swtrack/test/test_schema2.py'
g24
S'Schema2Test.test_insert_element'
tp29
sI18
(S'/Users/jonathangerber/src/python/swinstall_proposal/swtrack/test/test_schema2.py'
g24
S'Schema2Test.test_insert_element_with_revision'
tp30
sI19
(S'/Users/jonathangerber/src/python/swinstall_proposal/swtrack/test/test_schema2.py'
g24
S'Schema2Test.test_next_version'
tp31
sI20
(S'/Users/jonathangerber/src/python/swinstall_proposal/swtrack/test/test_schema2.py'
g24
S'Schema2Test.test_next_version_after_rollback'
tp32
sI21
(S'/Users/jonathangerber/src/python/swinstall_proposal/swtrack/test/test_schema2.py'
g24
S'Schema2Test.test_parse'
tp33
sI22
(S'/Users/jonathangerber/src/python/swinstall_proposal/swtrack/test/test_schema2.py'
g24
S'Schema2Test.test_rollback_element'
tp34
sI23
(S'/Users/jonathangerber/src/python/swinstall_proposal/swtrack/test/test_schema2.py'
g24
S'Schema2Test.test_too_many_rollbacks'
tp35
sI24
(S'/Users/jonathangerber/src/python/swinstall_proposal/swtrack/test/test_schema2.py'
g24
S'Schema2Test.test_version'
tp36
sI25
(S'/Users/jonathangerber/src/python/swinstall_proposal/swtrack/test/test_schema2.py'
g24
S'Schema2Test.test_version_nomatch'
tp37
sI26
(S'/Users/jonathangerber/src/python/swinstall_proposal/swtrack/test/test_schemabase.py'
S'test_schemabase'
p38
S'SchemaBaseTest.test_root_dirname'
tp39
sI27
(S'/Users/jonathangerber/src/python/swinstall_proposal/swtrack/test/test_schemabase.py'
g38
S'SchemaBaseTest.test_root_prop'
tp40
sI28
(S'/Users/jonathangerber/src/python/swinstall_proposal/swtrack/test/test_schemabase.py'
g38
S'SchemaBaseTest.test_swinstall_stack_prop'
tp41
sI29
(S'/Users/jonathangerber/src/python/swinstall_proposal/swtrack/test/test_schemabase.py'
g38
S'SchemaBaseTest.test_versionless_filename'
tp42
sI30
(S'/Users/jonathangerber/src/python/swinstall_proposal/swtrack/test/test_utils.py'
S'test_utils'
p43
S'UtilsTest.test_datetime_from_str'
tp44
sI31
(S'/Users/jonathangerber/src/python/swinstall_proposal/swtrack/test/test_utils.py'
g43
S'UtilsTest.test_datetime_revision_from_str_no_rev'
tp45
sI32
(S'/Users/jonathangerber/src/python/swinstall_proposal/swtrack/test/test_utils.py'
g43
S'UtilsTest.test_datetime_revision_from_str_with_rev'
tp46
sI33
(S'/Users/jonathangerber/src/python/swinstall_proposal/swtrack/test/test_utils.py'
g43
S'UtilsTest.test_datetime_to_str'
tp47
sI34
(S'/Users/jonathangerber/src/python/swinstall_proposal/swtrack/test/test_schema2.py'
S'test_schema2'
S'Schema2Test.test_file_on_str'
tp48
sI35
(S'/Users/jonathangerber/src/python/swinstall_proposal/swtrack/test/test_schema2.py'
S'test_schema2'
S'Schema2Test.test_file_on_str_inbetween'
tp49
sI36
(S'/Users/jonathangerber/src/python/swinstall_proposal/swtrack/test/test_schema2.py'
S'test_schema2'
S'Schema2Test.test_file_on_nomatch'
tp50
sI37
(S'/Users/jonathangerber/src/python/swinstall_proposal/swtrack/test/test_schema1.py'
S'test_schema1'
p51
S'Schema1Test.test_file_on'
tp52
sI38
(S'/Users/jonathangerber/src/python/swinstall_proposal/swtrack/test/test_schema1.py'
g51
S'Schema1Test.test_file_on_nomatch'
tp53
sI39
(S'/Users/jonathangerber/src/python/swinstall_proposal/swtrack/test/test_schema1.py'
g51
S'Schema1Test.test_file_on_str'
tp54
sI40
(S'/Users/jonathangerber/src/python/swinstall_proposal/swtrack/test/test_schema1.py'
g51
S'Schema1Test.test_file_on_str_inbetween'
tp55
ss.